target datalayout = "e-m:e-p270:32:32-p271:32:32-p272:64:64-i64:64-i128:128-f80:128-n8:16:32:64-S128"
target triple = "x86_64-unknown-linux-gnu"

%"class.Imf_3_2::ImageChannel" = type { ptr, ptr, i32, i32, i8, i32, i32, i64 }
%"class.Imath_3_2::Box" = type { %"class.Imath_3_2::Vec2", %"class.Imath_3_2::Vec2" }
%"class.Imath_3_2::Vec2" = type { i32, i32 }
%"class.Imf_3_2::ImageLevel" = type { ptr, ptr, i32, i32, %"class.Imath_3_2::Box" }

; Function Attrs: mustprogress nounwind uwtable
define linkonce_odr hidden noundef i32 @_ZNK7Imf_3_212ImageChannel12pixelsPerRowEv(ptr noundef nonnull align 8 dereferenceable(48) %this) #5 comdat align 2 {
entry:
  %this.addr = alloca ptr, align 8
  store ptr %this, ptr %this.addr, align 8
  %this1 = load ptr, ptr %this.addr, align 8
  %_pixelsPerRow = getelementptr inbounds %"class.Imf_3_2::ImageChannel", ptr %this1, i32 0, i32 5
  %0 = load i32, ptr %_pixelsPerRow, align 4
  ret i32 %0
}

; Function Attrs: mustprogress nounwind uwtable
define linkonce_odr hidden noundef nonnull align 4 dereferenceable(16) ptr @_ZNK7Imf_3_210ImageLevel10dataWindowEv(ptr noundef nonnull align 8 dereferenceable(40) %this) #5 comdat align 2 {
entry:
  %this.addr = alloca ptr, align 8
  store ptr %this, ptr %this.addr, align 8
  %this1 = load ptr, ptr %this.addr, align 8
  %_dataWindow = getelementptr inbounds %"class.Imf_3_2::ImageLevel", ptr %this1, i32 0, i32 4
  ret ptr %_dataWindow
}

; Function Attrs: mustprogress nounwind uwtable
define linkonce_odr hidden noundef nonnull align 8 dereferenceable(40) ptr @_ZN7Imf_3_212ImageChannel5levelEv(ptr noundef nonnull align 8 dereferenceable(48) %this) #5 comdat align 2 {
entry:
  %this.addr = alloca ptr, align 8
  store ptr %this, ptr %this.addr, align 8
  %this1 = load ptr, ptr %this.addr, align 8
  %_level = getelementptr inbounds %"class.Imf_3_2::ImageChannel", ptr %this1, i32 0, i32 1
  %0 = load ptr, ptr %_level, align 8
  ret ptr %0
}

; Function Attrs: mustprogress uwtable
define void @_ZN7Imf_3_218SampleCountChannel3setEiPj(ptr noundef nonnull align 8 dereferenceable(104) %this, i32 noundef %r, ptr noundef %newNumSamples) #4 align 2 {
entry:
  %this.addr = alloca ptr, align 8
  %r.addr = alloca i32, align 4
  %newNumSamples.addr = alloca ptr, align 8
  %x = alloca i32, align 4
  %y = alloca i32, align 4
  %i = alloca i32, align 4
  store ptr %this, ptr %this.addr, align 8
  store i32 %r, ptr %r.addr, align 4
  store ptr %newNumSamples, ptr %newNumSamples.addr, align 8
  %this1 = load ptr, ptr %this.addr, align 8
  %call = call noundef nonnull align 8 dereferenceable(40) ptr @_ZN7Imf_3_212ImageChannel5levelEv(ptr noundef nonnull align 8 dereferenceable(48) %this1)
  %call2 = call noundef nonnull align 4 dereferenceable(16) ptr @_ZNK7Imf_3_210ImageLevel10dataWindowEv(ptr noundef nonnull align 8 dereferenceable(40) %call)
  %min = getelementptr inbounds %"class.Imath_3_2::Box", ptr %call2, i32 0, i32 0
  %x3 = getelementptr inbounds %"class.Imath_3_2::Vec2", ptr %min, i32 0, i32 0
  %0 = load i32, ptr %x3, align 4
  store i32 %0, ptr %x, align 4
  %1 = load i32, ptr %r.addr, align 4
  %call4 = call noundef nonnull align 8 dereferenceable(40) ptr @_ZN7Imf_3_212ImageChannel5levelEv(ptr noundef nonnull align 8 dereferenceable(48) %this1)
  %call5 = call noundef nonnull align 4 dereferenceable(16) ptr @_ZNK7Imf_3_210ImageLevel10dataWindowEv(ptr noundef nonnull align 8 dereferenceable(40) %call4)
  %min6 = getelementptr inbounds %"class.Imath_3_2::Box", ptr %call5, i32 0, i32 0
  %x7 = getelementptr inbounds %"class.Imath_3_2::Vec2", ptr %min6, i32 0, i32 0
  %2 = load i32, ptr %x7, align 4
  %add = add nsw i32 %1, %2
  store i32 %add, ptr %y, align 4
  store i32 0, ptr %i, align 4
  br label %for.cond

for.cond:                                         ; preds = %for.inc, %entry
  %3 = load i32, ptr %i, align 4
  %call8 = call noundef i32 @_ZNK7Imf_3_212ImageChannel12pixelsPerRowEv(ptr noundef nonnull align 8 dereferenceable(48) %this1)
  %cmp = icmp slt i32 %3, %call8
  br i1 %cmp, label %for.body, label %for.end

for.body:                                         ; preds = %for.cond
  %4 = load i32, ptr %x, align 4
  %5 = load i32, ptr %y, align 4
  %6 = load ptr, ptr %newNumSamples.addr, align 8
  %7 = load i32, ptr %i, align 4
  %idxprom = sext i32 %7 to i64
  %arrayidx = getelementptr inbounds i32, ptr %6, i64 %idxprom
  %8 = load i32, ptr %arrayidx, align 4
  call void @_ZN7Imf_3_218SampleCountChannel3setEiij(ptr noundef nonnull align 8 dereferenceable(104) %this1, i32 noundef %4, i32 noundef %5, i32 noundef %8)
  br label %for.inc

for.inc:                                          ; preds = %for.body
  %9 = load i32, ptr %i, align 4
  %inc = add nsw i32 %9, 1
  store i32 %inc, ptr %i, align 4
  %10 = load i32, ptr %x, align 4
  %inc9 = add nsw i32 %10, 1
  store i32 %inc9, ptr %x, align 4
  br label %for.cond, !llvm.loop !7

for.end:                                          ; preds = %for.cond
  ret void
}