; Function Attrs: mustprogress uwtable
define void @_ZN7Imf_3_218SampleCountChannel3setEiPj(ptr nocapture noundef nonnull align 8 dereferenceable(104) %this, i32 noundef %r, ptr nocapture noundef readonly %newNumSamples) local_unnamed_addr #3 align 2 {
entry:
  %_level.i = getelementptr inbounds i8, ptr %this, i64 8
  %0 = load ptr, ptr %_level.i, align 8
  %_dataWindow.i = getelementptr inbounds i8, ptr %0, i64 24
  %1 = load i32, ptr %_dataWindow.i, align 4
  %add = add nsw i32 %1, %r
  %_pixelsPerRow.i = getelementptr inbounds i8, ptr %this, i64 28
  %2 = load i32, ptr %_pixelsPerRow.i, align 4
  %cmp6 = icmp sgt i32 %2, 0
  br i1 %cmp6, label %for.body, label %for.end

for.body:                                         ; preds = %entry, %for.body
  %indvars.iv = phi i64 [ %indvars.iv.next, %for.body ], [ 0, %entry ]
  %x.07 = phi i32 [ %inc9, %for.body ], [ %1, %entry ]
  %arrayidx = getelementptr inbounds i32, ptr %newNumSamples, i64 %indvars.iv
  %3 = load i32, ptr %arrayidx, align 4
  tail call void @_ZN7Imf_3_218SampleCountChannel3setEiij(ptr noundef nonnull align 8 dereferenceable(104) %this, i32 noundef %x.07, i32 noundef %add, i32 noundef %3)
  %indvars.iv.next = add nuw nsw i64 %indvars.iv, 1
  %inc9 = add nsw i32 %x.07, 1
  %4 = load i32, ptr %_pixelsPerRow.i, align 4
  %5 = sext i32 %4 to i64
  %cmp = icmp slt i64 %indvars.iv.next, %5
  br i1 %cmp, label %for.body, label %for.end, !llvm.loop !7

for.end:                                          ; preds = %for.body, %entry
  ret void
}